; Function Attrs: nounwind uwtable
define internal ptr @sys_getfilesystemencodeerrors(ptr readnone captures(none) %0, ptr readnone captures(none) %1) #0 {
  %3 = alloca ptr, align 8
  %4 = tail call align 8 ptr @llvm.threadlocal.address.p0(ptr align 8 @_Py_tss_tstate)
  %5 = load ptr, ptr %4, align 8, !tbaa !92
  %6 = getelementptr inbounds nuw i8, ptr %5, i64 16
  %7 = load ptr, ptr %6, align 8, !tbaa !4
  %8 = tail call ptr @_PyInterpreterState_GetConfig(ptr noundef %7) #15
  call void @llvm.lifetime.start.p0(i64 8, ptr nonnull %3) #15
  %9 = getelementptr inbounds nuw i8, ptr %8, i64 88
  %10 = load ptr, ptr %9, align 8, !tbaa !270
  %11 = tail call ptr @PyUnicode_FromWideChar(ptr noundef %10, i64 noundef -1) #15
  store ptr %11, ptr %3, align 8, !tbaa !93
  %12 = icmp eq ptr %11, null
  br i1 %12, label %sys_getfilesystemencodeerrors_impl.exit, label %13

13:                                               ; preds = %2
  call void @_PyUnicode_InternImmortal(ptr noundef %7, ptr noundef nonnull %3) #15
  %14 = load ptr, ptr %3, align 8, !tbaa !93
  br label %sys_getfilesystemencodeerrors_impl.exit

sys_getfilesystemencodeerrors_impl.exit:          ; preds = %2, %13
  %.0.i = phi ptr [ %14, %13 ], [ null, %2 ]
  call void @llvm.lifetime.end.p0(i64 8, ptr nonnull %3) #15
  ret ptr %.0.i
}